target datalayout = "e-m:e-p270:32:32-p271:32:32-p272:64:64-i64:64-i128:128-f80:128-n8:16:32:64-S128"
target triple = "x86_64-pc-linux-gnu"

%struct.expert_field = type { i32, i32 }
%struct._e_guid_t = type { i32, i16, i16, [8 x i8] }

@hf_pn_io_mrp_domain_uuid = internal global i32 0, align 4
@hf_pn_io_mrp_role = internal global i32 0, align 4
@hf_pn_io_mrp_length_domain_name = internal global i32 0, align 4
@hf_pn_io_mrp_domain_name = internal global i32 0, align 4
@hf_pn_io_mrp_instance = internal global i32 0, align 4
@hf_pn_io_mrp_version = internal global i32 0, align 4
@ei_pn_io_block_version = internal global %struct.expert_field zeroinitializer, align 4
@.str.1317 = private unnamed_addr constant [41 x i8] c"Block version %u.%u not implemented yet!\00", align 1

; Function Attrs: nounwind uwtable
define internal i32 @dissect_a_block(ptr noundef %0, i32 noundef %1, ptr noundef %2, ptr noundef %3, ptr noundef %4) #0 {
  %6 = alloca ptr, align 8
  %7 = alloca i32, align 4
  %8 = alloca ptr, align 8
  %9 = alloca ptr, align 8
  %10 = alloca ptr, align 8
  %11 = alloca i16, align 2
  %12 = alloca i32, align 4
  %13 = alloca ptr, align 8
  store ptr %0, ptr %6, align 8
  store i32 %1, ptr %7, align 4
  store ptr %2, ptr %8, align 8
  store ptr %3, ptr %9, align 8
  store ptr %4, ptr %10, align 8
  store i16 0, ptr %11, align 2
  store ptr null, ptr %13, align 8
  %14 = load ptr, ptr %6, align 8
  %15 = load i32, ptr %7, align 4
  %16 = load ptr, ptr %8, align 8
  %17 = load ptr, ptr %9, align 8
  %18 = load ptr, ptr %10, align 8
  %19 = call i32 @dissect_block(ptr noundef %14, i32 noundef %15, ptr noundef %16, ptr noundef %17, ptr noundef %18, ptr noundef %11, ptr noundef %12, ptr noundef %13)
  store i32 %19, ptr %7, align 4
  %20 = load ptr, ptr %13, align 8
  %21 = icmp ne ptr %20, null
  br i1 %21, label %22, label %27

22:                                               ; preds = %5
  %23 = load ptr, ptr %6, align 8
  %24 = load ptr, ptr %8, align 8
  %25 = load ptr, ptr %9, align 8
  %26 = load ptr, ptr %13, align 8
  call void @pnio_ar_info(ptr noundef %23, ptr noundef %24, ptr noundef %25, ptr noundef %26)
  br label %27

27:                                               ; preds = %22, %5
  %28 = load i32, ptr %7, align 4
  ret i32 %28
}

; Function Attrs: nounwind uwtable
define internal i32 @dissect_MrpInstanceDataReal_block(ptr noundef %0, i32 noundef %1, ptr noundef %2, ptr noundef %3, ptr noundef %4, ptr noundef %5, i8 noundef zeroext %6, i8 noundef zeroext %7, i16 noundef zeroext %8) #0 {
  %10 = alloca i32, align 4
  %11 = alloca ptr, align 8
  %12 = alloca i32, align 4
  %13 = alloca ptr, align 8
  %14 = alloca ptr, align 8
  %15 = alloca ptr, align 8
  %16 = alloca ptr, align 8
  %17 = alloca i8, align 1
  %18 = alloca i8, align 1
  %19 = alloca i16, align 2
  %20 = alloca i8, align 1
  %21 = alloca %struct._e_guid_t, align 4
  %22 = alloca i16, align 2
  %23 = alloca i16, align 2
  %24 = alloca i8, align 1
  %25 = alloca i32, align 4
  store ptr %0, ptr %11, align 8
  store i32 %1, ptr %12, align 4
  store ptr %2, ptr %13, align 8
  store ptr %3, ptr %14, align 8
  store ptr %4, ptr %15, align 8
  store ptr %5, ptr %16, align 8
  store i8 %6, ptr %17, align 1
  store i8 %7, ptr %18, align 1
  store i16 %8, ptr %19, align 2
  %26 = load i32, ptr %12, align 4
  %27 = load i16, ptr %19, align 2
  %28 = zext i16 %27 to i32
  %29 = add i32 %26, %28
  store i32 %29, ptr %25, align 4
  %30 = load i8, ptr %17, align 1
  %31 = zext i8 %30 to i32
  %32 = icmp ne i32 %31, 1
  br i1 %32, label %37, label %33

33:                                               ; preds = %9
  %34 = load i8, ptr %18, align 1
  %35 = zext i8 %34 to i32
  %36 = icmp ne i32 %35, 0
  br i1 %36, label %37, label %46

37:                                               ; preds = %33, %9
  %38 = load ptr, ptr %13, align 8
  %39 = load ptr, ptr %15, align 8
  %40 = load i8, ptr %17, align 1
  %41 = zext i8 %40 to i32
  %42 = load i8, ptr %18, align 1
  %43 = zext i8 %42 to i32
  %44 = call ptr (ptr, ptr, ptr, ptr, ...) @expert_add_info_format(ptr noundef %38, ptr noundef %39, ptr noundef @ei_pn_io_block_version, ptr noundef @.str.1317, i32 noundef %41, i32 noundef %43)
  %45 = load i32, ptr %12, align 4
  store i32 %45, ptr %10, align 4
  br label %116

46:                                               ; preds = %33
  %47 = load ptr, ptr %11, align 8
  %48 = load i32, ptr %12, align 4
  %49 = load ptr, ptr %13, align 8
  %50 = load ptr, ptr %14, align 8
  %51 = call i32 @dissect_pn_padding(ptr noundef %47, i32 noundef %48, ptr noundef %49, ptr noundef %50, i32 noundef 1)
  store i32 %51, ptr %12, align 4
  %52 = load ptr, ptr %11, align 8
  %53 = load i32, ptr %12, align 4
  %54 = load ptr, ptr %13, align 8
  %55 = load ptr, ptr %14, align 8
  %56 = load ptr, ptr %16, align 8
  %57 = load i32, ptr @hf_pn_io_mrp_instance, align 4
  %58 = call i32 @dissect_dcerpc_uint8(ptr noundef %52, i32 noundef %53, ptr noundef %54, ptr noundef %55, ptr noundef %56, i32 noundef %57, ptr noundef %20)
  store i32 %58, ptr %12, align 4
  %59 = load ptr, ptr %11, align 8
  %60 = load i32, ptr %12, align 4
  %61 = load ptr, ptr %13, align 8
  %62 = load ptr, ptr %14, align 8
  %63 = load ptr, ptr %16, align 8
  %64 = load i32, ptr @hf_pn_io_mrp_domain_uuid, align 4
  %65 = call i32 @dissect_dcerpc_uuid_t(ptr noundef %59, i32 noundef %60, ptr noundef %61, ptr noundef %62, ptr noundef %63, i32 noundef %64, ptr noundef %21)
  store i32 %65, ptr %12, align 4
  %66 = load ptr, ptr %11, align 8
  %67 = load i32, ptr %12, align 4
  %68 = load ptr, ptr %13, align 8
  %69 = load ptr, ptr %14, align 8
  %70 = load ptr, ptr %16, align 8
  %71 = load i32, ptr @hf_pn_io_mrp_role, align 4
  %72 = call i32 @dissect_dcerpc_uint16(ptr noundef %66, i32 noundef %67, ptr noundef %68, ptr noundef %69, ptr noundef %70, i32 noundef %71, ptr noundef %22)
  store i32 %72, ptr %12, align 4
  %73 = load ptr, ptr %11, align 8
  %74 = load i32, ptr %12, align 4
  %75 = load ptr, ptr %13, align 8
  %76 = load ptr, ptr %14, align 8
  %77 = load ptr, ptr %16, align 8
  %78 = load i32, ptr @hf_pn_io_mrp_version, align 4
  %79 = call i32 @dissect_dcerpc_uint16(ptr noundef %73, i32 noundef %74, ptr noundef %75, ptr noundef %76, ptr noundef %77, i32 noundef %78, ptr noundef %23)
  store i32 %79, ptr %12, align 4
  %80 = load ptr, ptr %11, align 8
  %81 = load i32, ptr %12, align 4
  %82 = load ptr, ptr %13, align 8
  %83 = load ptr, ptr %14, align 8
  %84 = load ptr, ptr %16, align 8
  %85 = load i32, ptr @hf_pn_io_mrp_length_domain_name, align 4
  %86 = call i32 @dissect_dcerpc_uint8(ptr noundef %80, i32 noundef %81, ptr noundef %82, ptr noundef %83, ptr noundef %84, i32 noundef %85, ptr noundef %24)
  store i32 %86, ptr %12, align 4
  %87 = load ptr, ptr %14, align 8
  %88 = load i32, ptr @hf_pn_io_mrp_domain_name, align 4
  %89 = load ptr, ptr %11, align 8
  %90 = load i32, ptr %12, align 4
  %91 = load i8, ptr %24, align 1
  %92 = zext i8 %91 to i32
  %93 = call ptr @proto_tree_add_item(ptr noundef %87, i32 noundef %88, ptr noundef %89, i32 noundef %90, i32 noundef %92, i32 noundef 0)
  %94 = load i8, ptr %24, align 1
  %95 = zext i8 %94 to i32
  %96 = load i32, ptr %12, align 4
  %97 = add i32 %96, %95
  store i32 %97, ptr %12, align 4
  %98 = load ptr, ptr %11, align 8
  %99 = load i32, ptr %12, align 4
  %100 = load ptr, ptr %13, align 8
  %101 = load ptr, ptr %14, align 8
  %102 = call i32 @dissect_pn_align4(ptr noundef %98, i32 noundef %99, ptr noundef %100, ptr noundef %101)
  store i32 %102, ptr %12, align 4
  br label %103

103:                                              ; preds = %107, %46
  %104 = load i32, ptr %25, align 4
  %105 = load i32, ptr %12, align 4
  %106 = icmp sgt i32 %104, %105
  br i1 %106, label %107, label %114

107:                                              ; preds = %103
  %108 = load ptr, ptr %11, align 8
  %109 = load i32, ptr %12, align 4
  %110 = load ptr, ptr %13, align 8
  %111 = load ptr, ptr %14, align 8
  %112 = load ptr, ptr %16, align 8
  %113 = call i32 @dissect_a_block(ptr noundef %108, i32 noundef %109, ptr noundef %110, ptr noundef %111, ptr noundef %112)
  store i32 %113, ptr %12, align 4
  br label %103, !llvm.loop !61

114:                                              ; preds = %103
  %115 = load i32, ptr %12, align 4
  store i32 %115, ptr %10, align 4
  br label %116

116:                                              ; preds = %114, %37
  %117 = load i32, ptr %10, align 4
  ret i32 %117
}