; Function Attrs: nounwind uwtable
define internal fastcc void @dissect_MrpInstanceDataReal_block(ptr noundef %0, i32 noundef %1, ptr noundef %2, ptr noundef %3, ptr noundef %4, ptr noundef %5, i8 noundef zeroext %6, i8 noundef zeroext %7, i16 noundef zeroext %8) unnamed_addr #0 {
  %10 = alloca i16, align 2
  %11 = alloca i32, align 4
  %12 = alloca ptr, align 8
  %13 = alloca i8, align 1
  %14 = alloca %struct._e_guid_t, align 4
  %15 = alloca i16, align 2
  %16 = alloca i16, align 2
  %17 = alloca i8, align 1
  %18 = zext i16 %8 to i32
  %19 = add i32 %1, %18
  %20 = icmp ne i8 %6, 1
  %21 = icmp ne i8 %7, 0
  %or.cond = or i1 %20, %21
  br i1 %or.cond, label %22, label %26

22:                                               ; preds = %9
  %23 = zext i8 %7 to i32
  %24 = zext i8 %6 to i32
  %25 = tail call ptr (ptr, ptr, ptr, ptr, ...) @expert_add_info_format(ptr noundef %2, ptr noundef %4, ptr noundef nonnull @ei_pn_io_block_version, ptr noundef nonnull @.str.1317, i32 noundef %24, i32 noundef %23) #11
  br label %.loopexit

26:                                               ; preds = %9
  %27 = tail call i32 @dissect_pn_padding(ptr noundef %0, i32 noundef %1, ptr noundef %2, ptr noundef %3, i32 noundef 1) #11
  %28 = load i32, ptr @hf_pn_io_mrp_instance, align 4
  %29 = call i32 @dissect_dcerpc_uint8(ptr noundef %0, i32 noundef %27, ptr noundef %2, ptr noundef %3, ptr noundef %5, i32 noundef %28, ptr noundef nonnull %13) #11
  %30 = load i32, ptr @hf_pn_io_mrp_domain_uuid, align 4
  %31 = call i32 @dissect_dcerpc_uuid_t(ptr noundef %0, i32 noundef %29, ptr noundef %2, ptr noundef %3, ptr noundef %5, i32 noundef %30, ptr noundef nonnull %14) #11
  %32 = load i32, ptr @hf_pn_io_mrp_role, align 4
  %33 = call i32 @dissect_dcerpc_uint16(ptr noundef %0, i32 noundef %31, ptr noundef %2, ptr noundef %3, ptr noundef %5, i32 noundef %32, ptr noundef nonnull %15) #11
  %34 = load i32, ptr @hf_pn_io_mrp_version, align 4
  %35 = call i32 @dissect_dcerpc_uint16(ptr noundef %0, i32 noundef %33, ptr noundef %2, ptr noundef %3, ptr noundef %5, i32 noundef %34, ptr noundef nonnull %16) #11
  %36 = load i32, ptr @hf_pn_io_mrp_length_domain_name, align 4
  %37 = call i32 @dissect_dcerpc_uint8(ptr noundef %0, i32 noundef %35, ptr noundef %2, ptr noundef %3, ptr noundef %5, i32 noundef %36, ptr noundef nonnull %17) #11
  %38 = load i32, ptr @hf_pn_io_mrp_domain_name, align 4
  %39 = load i8, ptr %17, align 1
  %40 = zext i8 %39 to i32
  %41 = call ptr @proto_tree_add_item(ptr noundef %3, i32 noundef %38, ptr noundef %0, i32 noundef %37, i32 noundef %40, i32 noundef 0) #11
  %42 = load i8, ptr %17, align 1
  %43 = zext i8 %42 to i32
  %44 = add i32 %37, %43
  %45 = call i32 @dissect_pn_align4(ptr noundef %0, i32 noundef %44, ptr noundef %2, ptr noundef %3) #11
  %46 = icmp sgt i32 %19, %45
  br i1 %46, label %.lr.ph, label %.loopexit

.lr.ph:                                           ; preds = %26, %dissect_a_block.exit
  %.05657 = phi i32 [ %47, %dissect_a_block.exit ], [ %45, %26 ]
  call void @llvm.lifetime.start.p0(i64 2, ptr nonnull %10)
  call void @llvm.lifetime.start.p0(i64 4, ptr nonnull %11)
  call void @llvm.lifetime.start.p0(i64 8, ptr nonnull %12)
  store i16 0, ptr %10, align 2
  store ptr null, ptr %12, align 8
  %47 = call fastcc i32 @dissect_block(ptr noundef %0, i32 noundef %.05657, ptr noundef %2, ptr noundef %3, ptr noundef %5, ptr noundef %10, ptr noundef %11, ptr noundef %12)
  %48 = load ptr, ptr %12, align 8
  %.not.i = icmp eq ptr %48, null
  br i1 %.not.i, label %dissect_a_block.exit, label %49

49:                                               ; preds = %.lr.ph
  call fastcc void @pnio_ar_info(ptr noundef %0, ptr noundef %2, ptr noundef %3, ptr noundef %48)
  br label %dissect_a_block.exit

dissect_a_block.exit:                             ; preds = %.lr.ph, %49
  call void @llvm.lifetime.end.p0(i64 2, ptr nonnull %10)
  call void @llvm.lifetime.end.p0(i64 4, ptr nonnull %11)
  call void @llvm.lifetime.end.p0(i64 8, ptr nonnull %12)
  %50 = icmp sgt i32 %19, %47
  br i1 %50, label %.lr.ph, label %.loopexit, !llvm.loop !69

.loopexit:                                        ; preds = %dissect_a_block.exit, %26, %22
  ret void
}